target datalayout = "e-m:e-p270:32:32-p271:32:32-p272:64:64-i64:64-i128:128-f80:128-n8:16:32:64-S128"
target triple = "x86_64-pc-linux-gnu"

; Function Attrs: nounwind uwtable
define hidden ptr @ERR_lib_error_string(i32 noundef %0) #0 {
  %2 = alloca ptr, align 8
  %3 = alloca i32, align 4
  %4 = alloca i32, align 4
  %5 = alloca i32, align 4
  store i32 %0, ptr %3, align 4, !tbaa !6
  call void @llvm.lifetime.start.p0(i64 4, ptr %4) #12
  %6 = load i32, ptr %3, align 4, !tbaa !6
  %7 = lshr i32 %6, 24
  %8 = and i32 %7, 255
  store i32 %8, ptr %4, align 4, !tbaa !6
  %9 = load i32, ptr %4, align 4, !tbaa !6
  %10 = icmp uge i32 %9, 33
  br i1 %10, label %11, label %12

11:                                               ; preds = %1
  store ptr null, ptr %2, align 8
  store i32 1, ptr %5, align 4
  br label %17

12:                                               ; preds = %1
  %13 = load i32, ptr %4, align 4, !tbaa !6
  %14 = zext i32 %13 to i64
  %15 = getelementptr inbounds nuw [33 x ptr], ptr @kLibraryNames, i64 0, i64 %14
  %16 = load ptr, ptr %15, align 8, !tbaa !27
  store ptr %16, ptr %2, align 8
  store i32 1, ptr %5, align 4
  br label %17

17:                                               ; preds = %12, %11
  call void @llvm.lifetime.end.p0(i64 4, ptr %4) #12
  %18 = load ptr, ptr %2, align 8
  ret ptr %18
}