; Function Attrs: mustprogress nofree norecurse nosync nounwind willreturn memory(none) uwtable
define hidden ptr @ERR_lib_error_string(i32 noundef %0) local_unnamed_addr #6 {
  %2 = icmp ugt i32 %0, 553648127
  br i1 %2, label %8, label %3

3:                                                ; preds = %1
  %4 = lshr i32 %0, 24
  %5 = zext nneg i32 %4 to i64
  %6 = getelementptr inbounds nuw [33 x ptr], ptr @kLibraryNames, i64 0, i64 %5
  %7 = load ptr, ptr %6, align 8, !tbaa !20
  br label %8

8:                                                ; preds = %1, %3
  %.0 = phi ptr [ %7, %3 ], [ null, %1 ]
  ret ptr %.0
}